#include <math.h>
#include <stdio.h>
#include <stdlib.h>
#include <string.h>

int main()
{
	int i,j,n;
	char a[100]={0},b[100]={0};
	scanf("%s %s",a,b);
	if(strlen(a)!=strlen(b))printf("NO");
	else
	{
	n=strlen(a);	
	for(i=0;i<n;i++)
	{
		for(j=0;j<n;j++)
		if(a[i]==b[j]){a[i]='1';b[j]='1';break;}
	}
	if(!strcmp(a,b))printf("YES");
	else printf("NO");
	}
	return 0;
}